target datalayout = "e-m:e-p270:32:32-p271:32:32-p272:64:64-i64:64-i128:128-f80:128-n8:16:32:64-S128"
target triple = "x86_64-pc-linux-gnu"

%struct.FreePageManager = type { %union.RelptrFreePageManager, %union.RelptrFreePageBtree, %union.RelptrFreePageSpanLeader, i32, i32, i64, i64, i64, i8, [129 x %union.RelptrFreePageSpanLeader] }
%union.RelptrFreePageManager = type { ptr }
%union.RelptrFreePageBtree = type { ptr }
%union.RelptrFreePageSpanLeader = type { ptr }
%struct.FreePageBtree = type { %struct.FreePageBtreeHeader, %union.anon }
%struct.FreePageBtreeHeader = type { i32, i64, %union.RelptrFreePageBtree }
%union.anon = type { [254 x %struct.FreePageBtreeInternalKey] }
%struct.FreePageBtreeInternalKey = type { i64, %union.RelptrFreePageBtree }
%struct.FreePageBtreeLeafKey = type { i64, i64 }

@.str.6 = private unnamed_addr constant [12 x i8] c"  %zu@%d %c\00", align 1
@.str.7 = private unnamed_addr constant [35 x i8] c" [actual parent %zu, expected %zu]\00", align 1
@.str.8 = private unnamed_addr constant [10 x i8] c" %zu->%zu\00", align 1
@.str.9 = private unnamed_addr constant [10 x i8] c" %zu(%zu)\00", align 1

; Function Attrs: nounwind uwtable
define internal void @FreePageManagerDumpBtree(ptr noundef %0, ptr noundef %1, ptr noundef %2, i32 noundef %3, ptr noundef %4) #0 {
  %6 = alloca ptr, align 8
  %7 = alloca ptr, align 8
  %8 = alloca ptr, align 8
  %9 = alloca i32, align 4
  %10 = alloca ptr, align 8
  %11 = alloca ptr, align 8
  %12 = alloca i64, align 8
  %13 = alloca i64, align 8
  %14 = alloca ptr, align 8
  %15 = alloca i32, align 4
  %16 = alloca ptr, align 8
  %17 = alloca i32, align 4
  store ptr %0, ptr %6, align 8
  store ptr %1, ptr %7, align 8
  store ptr %2, ptr %8, align 8
  store i32 %3, ptr %9, align 4
  store ptr %4, ptr %10, align 8
  call void @llvm.lifetime.start.p0(i64 8, ptr %11) #6
  %18 = load ptr, ptr %6, align 8
  %19 = load ptr, ptr %6, align 8
  %20 = getelementptr inbounds nuw %struct.FreePageManager, ptr %19, i32 0, i32 0
  %21 = load i64, ptr %20, align 8
  %22 = sub i64 %21, 1
  %23 = sub i64 0, %22
  %24 = getelementptr inbounds i8, ptr %18, i64 %23
  store ptr %24, ptr %11, align 8
  call void @llvm.lifetime.start.p0(i64 8, ptr %12) #6
  %25 = load ptr, ptr %7, align 8
  %26 = load ptr, ptr %11, align 8
  %27 = ptrtoint ptr %25 to i64
  %28 = ptrtoint ptr %26 to i64
  %29 = sub i64 %27, %28
  %30 = udiv i64 %29, 4096
  store i64 %30, ptr %12, align 8
  call void @llvm.lifetime.start.p0(i64 8, ptr %13) #6
  call void @llvm.lifetime.start.p0(i64 8, ptr %14) #6
  call void @check_stack_depth()
  br label %31

31:                                               ; preds = %5
  br label %32

32:                                               ; preds = %31
  br label %33

33:                                               ; preds = %32
  store i32 1, ptr %15, align 4
  %34 = load ptr, ptr %7, align 8
  %35 = getelementptr inbounds nuw %struct.FreePageBtree, ptr %34, i32 0, i32 0
  %36 = getelementptr inbounds nuw %struct.FreePageBtreeHeader, ptr %35, i32 0, i32 2
  %37 = load i64, ptr %36, align 8
  %38 = icmp eq i64 %37, 0
  br i1 %38, label %39, label %40

39:                                               ; preds = %33
  br label %48

40:                                               ; preds = %33
  %41 = load ptr, ptr %11, align 8
  %42 = load ptr, ptr %7, align 8
  %43 = getelementptr inbounds nuw %struct.FreePageBtree, ptr %42, i32 0, i32 0
  %44 = getelementptr inbounds nuw %struct.FreePageBtreeHeader, ptr %43, i32 0, i32 2
  %45 = load i64, ptr %44, align 8
  %46 = getelementptr inbounds nuw i8, ptr %41, i64 %45
  %47 = getelementptr inbounds i8, ptr %46, i64 -1
  br label %48

48:                                               ; preds = %40, %39
  %49 = phi ptr [ null, %39 ], [ %47, %40 ]
  store ptr %49, ptr %14, align 8
  %50 = load ptr, ptr %10, align 8
  %51 = load i64, ptr %12, align 8
  %52 = load i32, ptr %9, align 4
  %53 = load ptr, ptr %7, align 8
  %54 = getelementptr inbounds nuw %struct.FreePageBtree, ptr %53, i32 0, i32 0
  %55 = getelementptr inbounds nuw %struct.FreePageBtreeHeader, ptr %54, i32 0, i32 0
  %56 = load i32, ptr %55, align 8
  %57 = icmp eq i32 %56, 430584521
  %58 = select i1 %57, i32 105, i32 108
  call void (ptr, ptr, ...) @appendStringInfo(ptr noundef %50, ptr noundef @.str.6, i64 noundef %51, i32 noundef %52, i32 noundef %58)
  %59 = load ptr, ptr %8, align 8
  %60 = load ptr, ptr %14, align 8
  %61 = icmp ne ptr %59, %60
  br i1 %61, label %62, label %76

62:                                               ; preds = %48
  %63 = load ptr, ptr %10, align 8
  %64 = load ptr, ptr %14, align 8
  %65 = load ptr, ptr %11, align 8
  %66 = ptrtoint ptr %64 to i64
  %67 = ptrtoint ptr %65 to i64
  %68 = sub i64 %66, %67
  %69 = udiv i64 %68, 4096
  %70 = load ptr, ptr %8, align 8
  %71 = load ptr, ptr %11, align 8
  %72 = ptrtoint ptr %70 to i64
  %73 = ptrtoint ptr %71 to i64
  %74 = sub i64 %72, %73
  %75 = udiv i64 %74, 4096
  call void (ptr, ptr, ...) @appendStringInfo(ptr noundef %63, ptr noundef @.str.7, i64 noundef %69, i64 noundef %75)
  br label %76

76:                                               ; preds = %62, %48
  %77 = load ptr, ptr %10, align 8
  call void @appendStringInfoChar(ptr noundef %77, i8 noundef signext 58)
  store i64 0, ptr %13, align 8
  br label %78

78:                                               ; preds = %122, %76
  %79 = load i64, ptr %13, align 8
  %80 = load ptr, ptr %7, align 8
  %81 = getelementptr inbounds nuw %struct.FreePageBtree, ptr %80, i32 0, i32 0
  %82 = getelementptr inbounds nuw %struct.FreePageBtreeHeader, ptr %81, i32 0, i32 1
  %83 = load i64, ptr %82, align 8
  %84 = icmp ult i64 %79, %83
  br i1 %84, label %85, label %125

85:                                               ; preds = %78
  %86 = load ptr, ptr %7, align 8
  %87 = getelementptr inbounds nuw %struct.FreePageBtree, ptr %86, i32 0, i32 0
  %88 = getelementptr inbounds nuw %struct.FreePageBtreeHeader, ptr %87, i32 0, i32 0
  %89 = load i32, ptr %88, align 8
  %90 = icmp eq i32 %89, 430584521
  br i1 %90, label %91, label %107

91:                                               ; preds = %85
  %92 = load ptr, ptr %10, align 8
  %93 = load ptr, ptr %7, align 8
  %94 = getelementptr inbounds nuw %struct.FreePageBtree, ptr %93, i32 0, i32 1
  %95 = load i64, ptr %13, align 8
  %96 = getelementptr inbounds nuw [254 x %struct.FreePageBtreeInternalKey], ptr %94, i64 0, i64 %95
  %97 = getelementptr inbounds nuw %struct.FreePageBtreeInternalKey, ptr %96, i32 0, i32 0
  %98 = load i64, ptr %97, align 8
  %99 = load ptr, ptr %7, align 8
  %100 = getelementptr inbounds nuw %struct.FreePageBtree, ptr %99, i32 0, i32 1
  %101 = load i64, ptr %13, align 8
  %102 = getelementptr inbounds nuw [254 x %struct.FreePageBtreeInternalKey], ptr %100, i64 0, i64 %101
  %103 = getelementptr inbounds nuw %struct.FreePageBtreeInternalKey, ptr %102, i32 0, i32 1
  %104 = load i64, ptr %103, align 8
  %105 = sub i64 %104, 1
  %106 = udiv i64 %105, 4096
  call void (ptr, ptr, ...) @appendStringInfo(ptr noundef %92, ptr noundef @.str.8, i64 noundef %98, i64 noundef %106)
  br label %121

107:                                              ; preds = %85
  %108 = load ptr, ptr %10, align 8
  %109 = load ptr, ptr %7, align 8
  %110 = getelementptr inbounds nuw %struct.FreePageBtree, ptr %109, i32 0, i32 1
  %111 = load i64, ptr %13, align 8
  %112 = getelementptr inbounds nuw [254 x %struct.FreePageBtreeLeafKey], ptr %110, i64 0, i64 %111
  %113 = getelementptr inbounds nuw %struct.FreePageBtreeLeafKey, ptr %112, i32 0, i32 0
  %114 = load i64, ptr %113, align 8
  %115 = load ptr, ptr %7, align 8
  %116 = getelementptr inbounds nuw %struct.FreePageBtree, ptr %115, i32 0, i32 1
  %117 = load i64, ptr %13, align 8
  %118 = getelementptr inbounds nuw [254 x %struct.FreePageBtreeLeafKey], ptr %116, i64 0, i64 %117
  %119 = getelementptr inbounds nuw %struct.FreePageBtreeLeafKey, ptr %118, i32 0, i32 1
  %120 = load i64, ptr %119, align 8
  call void (ptr, ptr, ...) @appendStringInfo(ptr noundef %108, ptr noundef @.str.9, i64 noundef %114, i64 noundef %120)
  br label %121

121:                                              ; preds = %107, %91
  br label %122

122:                                              ; preds = %121
  %123 = load i64, ptr %13, align 8
  %124 = add i64 %123, 1
  store i64 %124, ptr %13, align 8
  br label %78, !llvm.loop !14

125:                                              ; preds = %78
  %126 = load ptr, ptr %10, align 8
  call void @appendStringInfoChar(ptr noundef %126, i8 noundef signext 10)
  %127 = load ptr, ptr %7, align 8
  %128 = getelementptr inbounds nuw %struct.FreePageBtree, ptr %127, i32 0, i32 0
  %129 = getelementptr inbounds nuw %struct.FreePageBtreeHeader, ptr %128, i32 0, i32 0
  %130 = load i32, ptr %129, align 8
  %131 = icmp eq i32 %130, 430584521
  br i1 %131, label %132, label %174

132:                                              ; preds = %125
  store i64 0, ptr %13, align 8
  br label %133

133:                                              ; preds = %170, %132
  %134 = load i64, ptr %13, align 8
  %135 = load ptr, ptr %7, align 8
  %136 = getelementptr inbounds nuw %struct.FreePageBtree, ptr %135, i32 0, i32 0
  %137 = getelementptr inbounds nuw %struct.FreePageBtreeHeader, ptr %136, i32 0, i32 1
  %138 = load i64, ptr %137, align 8
  %139 = icmp ult i64 %134, %138
  br i1 %139, label %140, label %173

140:                                              ; preds = %133
  call void @llvm.lifetime.start.p0(i64 8, ptr %16) #6
  br label %141

141:                                              ; preds = %140
  br label %142

142:                                              ; preds = %141
  br label %143

143:                                              ; preds = %142
  store i32 1, ptr %17, align 4
  %144 = load ptr, ptr %7, align 8
  %145 = getelementptr inbounds nuw %struct.FreePageBtree, ptr %144, i32 0, i32 1
  %146 = load i64, ptr %13, align 8
  %147 = getelementptr inbounds nuw [254 x %struct.FreePageBtreeInternalKey], ptr %145, i64 0, i64 %146
  %148 = getelementptr inbounds nuw %struct.FreePageBtreeInternalKey, ptr %147, i32 0, i32 1
  %149 = load i64, ptr %148, align 8
  %150 = icmp eq i64 %149, 0
  br i1 %150, label %151, label %152

151:                                              ; preds = %143
  br label %162

152:                                              ; preds = %143
  %153 = load ptr, ptr %11, align 8
  %154 = load ptr, ptr %7, align 8
  %155 = getelementptr inbounds nuw %struct.FreePageBtree, ptr %154, i32 0, i32 1
  %156 = load i64, ptr %13, align 8
  %157 = getelementptr inbounds nuw [254 x %struct.FreePageBtreeInternalKey], ptr %155, i64 0, i64 %156
  %158 = getelementptr inbounds nuw %struct.FreePageBtreeInternalKey, ptr %157, i32 0, i32 1
  %159 = load i64, ptr %158, align 8
  %160 = getelementptr inbounds nuw i8, ptr %153, i64 %159
  %161 = getelementptr inbounds i8, ptr %160, i64 -1
  br label %162

162:                                              ; preds = %152, %151
  %163 = phi ptr [ null, %151 ], [ %161, %152 ]
  store ptr %163, ptr %16, align 8
  %164 = load ptr, ptr %6, align 8
  %165 = load ptr, ptr %16, align 8
  %166 = load ptr, ptr %7, align 8
  %167 = load i32, ptr %9, align 4
  %168 = add i32 %167, 1
  %169 = load ptr, ptr %10, align 8
  call void @FreePageManagerDumpBtree(ptr noundef %164, ptr noundef %165, ptr noundef %166, i32 noundef %168, ptr noundef %169)
  call void @llvm.lifetime.end.p0(i64 8, ptr %16) #6
  br label %170

170:                                              ; preds = %162
  %171 = load i64, ptr %13, align 8
  %172 = add i64 %171, 1
  store i64 %172, ptr %13, align 8
  br label %133, !llvm.loop !15

173:                                              ; preds = %133
  br label %174

174:                                              ; preds = %173, %125
  call void @llvm.lifetime.end.p0(i64 8, ptr %14) #6
  call void @llvm.lifetime.end.p0(i64 8, ptr %13) #6
  call void @llvm.lifetime.end.p0(i64 8, ptr %12) #6
  call void @llvm.lifetime.end.p0(i64 8, ptr %11) #6
  ret void
}