; Function Attrs: nounwind uwtable
define internal fastcc void @FreePageManagerDumpBtree(ptr noundef %0, ptr noundef %1, ptr noundef %2, i32 noundef %3, ptr noundef nonnull %4) unnamed_addr #2 {
  %6 = load i64, ptr %0, align 8
  %7 = sub i64 1, %6
  %8 = getelementptr inbounds i8, ptr %0, i64 %7
  %9 = ptrtoint ptr %1 to i64
  %10 = ptrtoint ptr %8 to i64
  %11 = sub i64 %9, %10
  %12 = lshr i64 %11, 12
  tail call void @check_stack_depth() #12
  %13 = getelementptr inbounds nuw i8, ptr %1, i64 16
  %14 = load i64, ptr %13, align 8
  %15 = icmp eq i64 %14, 0
  %16 = getelementptr inbounds nuw i8, ptr %8, i64 %14
  %17 = getelementptr inbounds i8, ptr %16, i64 -1
  %18 = select i1 %15, ptr null, ptr %17
  %19 = load i32, ptr %1, align 8
  %20 = icmp eq i32 %19, 430584521
  %21 = select i1 %20, i32 105, i32 108
  tail call void (ptr, ptr, ...) @appendStringInfo(ptr noundef nonnull %4, ptr noundef nonnull @.str.6, i64 noundef %12, i32 noundef %3, i32 noundef %21) #12
  %.not = icmp eq ptr %2, %18
  br i1 %.not, label %29, label %22

22:                                               ; preds = %5
  %23 = ptrtoint ptr %18 to i64
  %24 = sub i64 %23, %10
  %25 = lshr i64 %24, 12
  %26 = ptrtoint ptr %2 to i64
  %27 = sub i64 %26, %10
  %28 = lshr i64 %27, 12
  tail call void (ptr, ptr, ...) @appendStringInfo(ptr noundef nonnull %4, ptr noundef nonnull @.str.7, i64 noundef %25, i64 noundef %28) #12
  br label %29

29:                                               ; preds = %22, %5
  tail call void @appendStringInfoChar(ptr noundef nonnull %4, i8 noundef signext 58) #12
  %30 = getelementptr inbounds nuw i8, ptr %1, i64 8
  %31 = load i64, ptr %30, align 8
  %.not54 = icmp eq i64 %31, 0
  br i1 %.not54, label %._crit_edge, label %.lr.ph

.lr.ph:                                           ; preds = %29
  %32 = getelementptr inbounds nuw i8, ptr %1, i64 24
  br label %33

33:                                               ; preds = %.lr.ph, %48
  %.051 = phi i64 [ 0, %.lr.ph ], [ %49, %48 ]
  %34 = load i32, ptr %1, align 8
  %35 = icmp eq i32 %34, 430584521
  br i1 %35, label %36, label %43

36:                                               ; preds = %33
  %37 = getelementptr inbounds nuw [254 x %struct.FreePageBtreeInternalKey], ptr %32, i64 0, i64 %.051
  %38 = load i64, ptr %37, align 8
  %39 = getelementptr inbounds nuw i8, ptr %37, i64 8
  %40 = load i64, ptr %39, align 8
  %41 = add i64 %40, -1
  %42 = lshr i64 %41, 12
  tail call void (ptr, ptr, ...) @appendStringInfo(ptr noundef nonnull %4, ptr noundef nonnull @.str.8, i64 noundef %38, i64 noundef %42) #12
  br label %48

43:                                               ; preds = %33
  %44 = getelementptr inbounds nuw [254 x %struct.FreePageBtreeLeafKey], ptr %32, i64 0, i64 %.051
  %45 = load i64, ptr %44, align 8
  %46 = getelementptr inbounds nuw i8, ptr %44, i64 8
  %47 = load i64, ptr %46, align 8
  tail call void (ptr, ptr, ...) @appendStringInfo(ptr noundef nonnull %4, ptr noundef nonnull @.str.9, i64 noundef %45, i64 noundef %47) #12
  br label %48

48:                                               ; preds = %36, %43
  %49 = add nuw i64 %.051, 1
  %50 = load i64, ptr %30, align 8
  %51 = icmp ult i64 %49, %50
  br i1 %51, label %33, label %._crit_edge, !llvm.loop !17

._crit_edge:                                      ; preds = %48, %29
  tail call void @appendStringInfoChar(ptr noundef nonnull %4, i8 noundef signext 10) #12
  %52 = load i32, ptr %1, align 8
  %53 = icmp eq i32 %52, 430584521
  br i1 %53, label %.preheader, label %.loopexit

.preheader:                                       ; preds = %._crit_edge
  %invariant.gep = getelementptr i8, ptr %8, i64 -1
  %54 = load i64, ptr %30, align 8
  %.not55 = icmp eq i64 %54, 0
  br i1 %.not55, label %.loopexit, label %.lr.ph53

.lr.ph53:                                         ; preds = %.preheader
  %55 = getelementptr i8, ptr %1, i64 32
  %56 = add i32 %3, 1
  br label %57

57:                                               ; preds = %.lr.ph53, %57
  %.152 = phi i64 [ 0, %.lr.ph53 ], [ %62, %57 ]
  %.idx = shl nuw nsw i64 %.152, 4
  %58 = getelementptr i8, ptr %55, i64 %.idx
  %59 = load i64, ptr %58, align 8
  %60 = icmp eq i64 %59, 0
  %gep = getelementptr i8, ptr %invariant.gep, i64 %59
  %61 = select i1 %60, ptr null, ptr %gep
  tail call fastcc void @FreePageManagerDumpBtree(ptr noundef nonnull %0, ptr noundef %61, ptr noundef nonnull %1, i32 noundef %56, ptr noundef %4)
  %62 = add nuw i64 %.152, 1
  %63 = load i64, ptr %30, align 8
  %64 = icmp ult i64 %62, %63
  br i1 %64, label %57, label %.loopexit, !llvm.loop !18

.loopexit:                                        ; preds = %57, %.preheader, %._crit_edge
  ret void
}